target datalayout = "e-m:e-p270:32:32-p271:32:32-p272:64:64-i64:64-i128:128-f80:128-n8:16:32:64-S128"
target triple = "x86_64-pc-linux-gnu"

%class.substitution_tree = type { ptr, %class.ptr_vector, i32, %class.ptr_vector.0, i32, %class.ptr_vector.2, i32, %class.bit_vector, %class.svector, %class.svector.5, %class.svector.5, ptr, %class.ptr_vector, i32, i32, i32, %class.svector.7 }
%class.ptr_vector.0 = type { %class.vector.1 }
%class.vector.1 = type { ptr }
%class.ptr_vector.2 = type { %class.vector.3 }
%class.vector.3 = type { ptr }
%class.bit_vector = type { i32, i32, ptr }
%class.svector = type { %class.vector.4 }
%class.vector.4 = type { ptr }
%class.svector.5 = type { %class.vector.6 }
%class.vector.6 = type { ptr }
%class.ptr_vector = type { %class.vector }
%class.vector = type { ptr }
%class.svector.7 = type { %class.vector.8 }
%class.vector.8 = type { ptr }
%struct.delete_proc = type { i8 }

; Function Attrs: mustprogress uwtable
define linkonce_odr hidden void @_ZN11delete_procI10ref_vectorI3var11ast_managerEEclEPS3_(ptr noundef nonnull align 1 dereferenceable(1) %0, ptr noundef %1) #4 comdat align 2 {
  %3 = alloca ptr, align 8
  %4 = alloca ptr, align 8
  store ptr %0, ptr %3, align 8, !tbaa !237
  store ptr %1, ptr %4, align 8, !tbaa !109
  %5 = load ptr, ptr %4, align 8, !tbaa !109
  %6 = icmp ne ptr %5, null
  br i1 %6, label %7, label %9

7:                                                ; preds = %2
  %8 = load ptr, ptr %4, align 8, !tbaa !109
  call void @_Z7deallocI10ref_vectorI3var11ast_managerEEvPT_(ptr noundef %8)
  br label %9

9:                                                ; preds = %7, %2
  ret void
}

; Function Attrs: mustprogress nounwind uwtable
define linkonce_odr hidden noundef i32 @_ZNK6vectorIP10ref_vectorI3var11ast_managerELb0EjE4sizeEv(ptr noundef nonnull align 8 dereferenceable(8) %0) #6 comdat align 2 {
  %2 = alloca i32, align 4
  %3 = alloca ptr, align 8
  store ptr %0, ptr %3, align 8, !tbaa !117
  %4 = load ptr, ptr %3, align 8
  %5 = getelementptr inbounds nuw %class.vector.3, ptr %4, i32 0, i32 0
  %6 = load ptr, ptr %5, align 8, !tbaa !119
  %7 = icmp eq ptr %6, null
  br i1 %7, label %8, label %9

8:                                                ; preds = %1
  store i32 0, ptr %2, align 4
  br label %14

9:                                                ; preds = %1
  %10 = getelementptr inbounds nuw %class.vector.3, ptr %4, i32 0, i32 0
  %11 = load ptr, ptr %10, align 8, !tbaa !119
  %12 = getelementptr inbounds i32, ptr %11, i64 -1
  %13 = load i32, ptr %12, align 4, !tbaa !33
  store i32 %13, ptr %2, align 4
  br label %14

14:                                               ; preds = %9, %8
  %15 = load i32, ptr %2, align 4
  ret i32 %15
}

; Function Attrs: mustprogress nounwind uwtable
define linkonce_odr hidden noundef i32 @_ZNK6vectorIPN17substitution_tree4nodeELb0EjE4sizeEv(ptr noundef nonnull align 8 dereferenceable(8) %0) #6 comdat align 2 {
  %2 = alloca i32, align 4
  %3 = alloca ptr, align 8
  store ptr %0, ptr %3, align 8, !tbaa !126
  %4 = load ptr, ptr %3, align 8
  %5 = getelementptr inbounds nuw %class.vector, ptr %4, i32 0, i32 0
  %6 = load ptr, ptr %5, align 8, !tbaa !128
  %7 = icmp eq ptr %6, null
  br i1 %7, label %8, label %9

8:                                                ; preds = %1
  store i32 0, ptr %2, align 4
  br label %14

9:                                                ; preds = %1
  %10 = getelementptr inbounds nuw %class.vector, ptr %4, i32 0, i32 0
  %11 = load ptr, ptr %10, align 8, !tbaa !128
  %12 = getelementptr inbounds i32, ptr %11, i64 -1
  %13 = load i32, ptr %12, align 4, !tbaa !33
  store i32 %13, ptr %2, align 4
  br label %14

14:                                               ; preds = %9, %8
  %15 = load i32, ptr %2, align 4
  ret i32 %15
}

; Function Attrs: mustprogress nounwind uwtable
define linkonce_odr hidden void @_ZN6vectorIP10ref_vectorI3var11ast_managerELb0EjE5resetEv(ptr noundef nonnull align 8 dereferenceable(8) %0) #6 comdat align 2 {
  %2 = alloca ptr, align 8
  store ptr %0, ptr %2, align 8, !tbaa !117
  %3 = load ptr, ptr %2, align 8
  %4 = getelementptr inbounds nuw %class.vector.3, ptr %3, i32 0, i32 0
  %5 = load ptr, ptr %4, align 8, !tbaa !119
  %6 = icmp ne ptr %5, null
  br i1 %6, label %7, label %11

7:                                                ; preds = %1
  %8 = getelementptr inbounds nuw %class.vector.3, ptr %3, i32 0, i32 0
  %9 = load ptr, ptr %8, align 8, !tbaa !119
  %10 = getelementptr inbounds i32, ptr %9, i64 -1
  store i32 0, ptr %10, align 4, !tbaa !33
  br label %11

11:                                               ; preds = %7, %1
  ret void
}

; Function Attrs: mustprogress uwtable
define linkonce_odr hidden void @_ZSt8for_eachIPP10ref_vectorI3var11ast_managerE11delete_procIS3_EET0_T_S9_S8_(ptr noundef %0, ptr noundef %1) #4 comdat {
  %3 = alloca %struct.delete_proc, align 1
  %4 = alloca ptr, align 8
  %5 = alloca ptr, align 8
  store ptr %0, ptr %4, align 8, !tbaa !121
  store ptr %1, ptr %5, align 8, !tbaa !121
  br label %6

6:                                                ; preds = %13, %2
  %7 = load ptr, ptr %4, align 8, !tbaa !121
  %8 = load ptr, ptr %5, align 8, !tbaa !121
  %9 = icmp ne ptr %7, %8
  br i1 %9, label %10, label %16

10:                                               ; preds = %6
  %11 = load ptr, ptr %4, align 8, !tbaa !121
  %12 = load ptr, ptr %11, align 8, !tbaa !109
  call void @_ZN11delete_procI10ref_vectorI3var11ast_managerEEclEPS3_(ptr noundef nonnull align 1 dereferenceable(1) %3, ptr noundef %12)
  br label %13

13:                                               ; preds = %10
  %14 = load ptr, ptr %4, align 8, !tbaa !121
  %15 = getelementptr inbounds nuw ptr, ptr %14, i32 1
  store ptr %15, ptr %4, align 8, !tbaa !121
  br label %6, !llvm.loop !150

16:                                               ; preds = %6
  ret void
}

; Function Attrs: mustprogress nounwind uwtable
define linkonce_odr hidden noundef ptr @_ZN6vectorIP10ref_vectorI3var11ast_managerELb0EjE3endEv(ptr noundef nonnull align 8 dereferenceable(8) %0) #6 comdat align 2 {
  %2 = alloca ptr, align 8
  store ptr %0, ptr %2, align 8, !tbaa !117
  %3 = load ptr, ptr %2, align 8
  %4 = getelementptr inbounds nuw %class.vector.3, ptr %3, i32 0, i32 0
  %5 = load ptr, ptr %4, align 8, !tbaa !119
  %6 = call noundef i32 @_ZNK6vectorIP10ref_vectorI3var11ast_managerELb0EjE4sizeEv(ptr noundef nonnull align 8 dereferenceable(8) %3)
  %7 = zext i32 %6 to i64
  %8 = getelementptr inbounds nuw ptr, ptr %5, i64 %7
  ret ptr %8
}

; Function Attrs: mustprogress nounwind uwtable
define linkonce_odr hidden noundef ptr @_ZN6vectorIP10ref_vectorI3var11ast_managerELb0EjE5beginEv(ptr noundef nonnull align 8 dereferenceable(8) %0) #6 comdat align 2 {
  %2 = alloca ptr, align 8
  store ptr %0, ptr %2, align 8, !tbaa !117
  %3 = load ptr, ptr %2, align 8
  %4 = getelementptr inbounds nuw %class.vector.3, ptr %3, i32 0, i32 0
  %5 = load ptr, ptr %4, align 8, !tbaa !119
  ret ptr %5
}

; Function Attrs: mustprogress nounwind uwtable
define linkonce_odr hidden void @_ZN6vectorIPN17substitution_tree4nodeELb0EjE5resetEv(ptr noundef nonnull align 8 dereferenceable(8) %0) #6 comdat align 2 {
  %2 = alloca ptr, align 8
  store ptr %0, ptr %2, align 8, !tbaa !126
  %3 = load ptr, ptr %2, align 8
  %4 = getelementptr inbounds nuw %class.vector, ptr %3, i32 0, i32 0
  %5 = load ptr, ptr %4, align 8, !tbaa !128
  %6 = icmp ne ptr %5, null
  br i1 %6, label %7, label %11

7:                                                ; preds = %1
  %8 = getelementptr inbounds nuw %class.vector, ptr %3, i32 0, i32 0
  %9 = load ptr, ptr %8, align 8, !tbaa !128
  %10 = getelementptr inbounds i32, ptr %9, i64 -1
  store i32 0, ptr %10, align 4, !tbaa !33
  br label %11

11:                                               ; preds = %7, %1
  ret void
}

; Function Attrs: mustprogress nounwind uwtable
define linkonce_odr hidden noundef ptr @_ZN6vectorIPN17substitution_tree4nodeELb0EjE3endEv(ptr noundef nonnull align 8 dereferenceable(8) %0) #6 comdat align 2 {
  %2 = alloca ptr, align 8
  store ptr %0, ptr %2, align 8, !tbaa !126
  %3 = load ptr, ptr %2, align 8
  %4 = getelementptr inbounds nuw %class.vector, ptr %3, i32 0, i32 0
  %5 = load ptr, ptr %4, align 8, !tbaa !128
  %6 = call noundef i32 @_ZNK6vectorIPN17substitution_tree4nodeELb0EjE4sizeEv(ptr noundef nonnull align 8 dereferenceable(8) %3)
  %7 = zext i32 %6 to i64
  %8 = getelementptr inbounds nuw ptr, ptr %5, i64 %7
  ret ptr %8
}

; Function Attrs: mustprogress nounwind uwtable
define linkonce_odr hidden noundef ptr @_ZN6vectorIPN17substitution_tree4nodeELb0EjE5beginEv(ptr noundef nonnull align 8 dereferenceable(8) %0) #6 comdat align 2 {
  %2 = alloca ptr, align 8
  store ptr %0, ptr %2, align 8, !tbaa !126
  %3 = load ptr, ptr %2, align 8
  %4 = getelementptr inbounds nuw %class.vector, ptr %3, i32 0, i32 0
  %5 = load ptr, ptr %4, align 8, !tbaa !128
  ret ptr %5
}

; Function Attrs: mustprogress uwtable
define hidden void @_ZN17substitution_tree5resetEv(ptr noundef nonnull align 8 dereferenceable(136) %0) #4 align 2 {
  %2 = alloca ptr, align 8
  %3 = alloca ptr, align 8
  %4 = alloca ptr, align 8
  store ptr %0, ptr %2, align 8, !tbaa !3
  %5 = load ptr, ptr %2, align 8
  call void @llvm.lifetime.start.p0(i64 8, ptr %3) #3
  %6 = getelementptr inbounds nuw %class.substitution_tree, ptr %5, i32 0, i32 1
  %7 = call noundef ptr @_ZN6vectorIPN17substitution_tree4nodeELb0EjE5beginEv(ptr noundef nonnull align 8 dereferenceable(8) %6)
  store ptr %7, ptr %3, align 8, !tbaa !130
  call void @llvm.lifetime.start.p0(i64 8, ptr %4) #3
  %8 = getelementptr inbounds nuw %class.substitution_tree, ptr %5, i32 0, i32 1
  %9 = call noundef ptr @_ZN6vectorIPN17substitution_tree4nodeELb0EjE3endEv(ptr noundef nonnull align 8 dereferenceable(8) %8)
  store ptr %9, ptr %4, align 8, !tbaa !130
  br label %10

10:                                               ; preds = %22, %1
  %11 = load ptr, ptr %3, align 8, !tbaa !130
  %12 = load ptr, ptr %4, align 8, !tbaa !130
  %13 = icmp ne ptr %11, %12
  br i1 %13, label %14, label %25

14:                                               ; preds = %10
  %15 = load ptr, ptr %3, align 8, !tbaa !130
  %16 = load ptr, ptr %15, align 8, !tbaa !97
  %17 = icmp ne ptr %16, null
  br i1 %17, label %18, label %21

18:                                               ; preds = %14
  %19 = load ptr, ptr %3, align 8, !tbaa !130
  %20 = load ptr, ptr %19, align 8, !tbaa !97
  call void @_ZN17substitution_tree11delete_nodeEPNS_4nodeE(ptr noundef nonnull align 8 dereferenceable(136) %5, ptr noundef %20)
  br label %21

21:                                               ; preds = %18, %14
  br label %22

22:                                               ; preds = %21
  %23 = load ptr, ptr %3, align 8, !tbaa !130
  %24 = getelementptr inbounds nuw ptr, ptr %23, i32 1
  store ptr %24, ptr %3, align 8, !tbaa !130
  br label %10, !llvm.loop !149

25:                                               ; preds = %10
  %26 = getelementptr inbounds nuw %class.substitution_tree, ptr %5, i32 0, i32 1
  call void @_ZN6vectorIPN17substitution_tree4nodeELb0EjE5resetEv(ptr noundef nonnull align 8 dereferenceable(8) %26)
  %27 = getelementptr inbounds nuw %class.substitution_tree, ptr %5, i32 0, i32 5
  %28 = call noundef ptr @_ZN6vectorIP10ref_vectorI3var11ast_managerELb0EjE5beginEv(ptr noundef nonnull align 8 dereferenceable(8) %27)
  %29 = getelementptr inbounds nuw %class.substitution_tree, ptr %5, i32 0, i32 5
  %30 = call noundef ptr @_ZN6vectorIP10ref_vectorI3var11ast_managerELb0EjE3endEv(ptr noundef nonnull align 8 dereferenceable(8) %29)
  call void @_ZSt8for_eachIPP10ref_vectorI3var11ast_managerE11delete_procIS3_EET0_T_S9_S8_(ptr noundef %28, ptr noundef %30)
  %31 = getelementptr inbounds nuw %class.substitution_tree, ptr %5, i32 0, i32 5
  call void @_ZN6vectorIP10ref_vectorI3var11ast_managerELb0EjE5resetEv(ptr noundef nonnull align 8 dereferenceable(8) %31)
  %32 = getelementptr inbounds nuw %class.substitution_tree, ptr %5, i32 0, i32 4
  store i32 0, ptr %32, align 8, !tbaa !112
  call void @llvm.lifetime.end.p0(i64 8, ptr %4) #3
  call void @llvm.lifetime.end.p0(i64 8, ptr %3) #3
  ret void
}