; Function Attrs: mustprogress uwtable
define hidden void @_ZN17substitution_tree5resetEv(ptr noundef nonnull align 8 captures(none) dereferenceable(136) %0) local_unnamed_addr #5 align 2 {
  %2 = getelementptr inbounds nuw i8, ptr %0, i64 8
  %3 = load ptr, ptr %2, align 8, !tbaa !96
  %4 = icmp eq ptr %3, null
  br i1 %4, label %_ZN6vectorIPN17substitution_tree4nodeELb0EjE5resetEv.exit, label %_ZN6vectorIPN17substitution_tree4nodeELb0EjE3endEv.exit

_ZN6vectorIPN17substitution_tree4nodeELb0EjE3endEv.exit: ; preds = %1
  %5 = getelementptr inbounds i8, ptr %3, i64 -4
  %6 = load i32, ptr %5, align 4, !tbaa !33
  %7 = zext i32 %6 to i64
  %8 = getelementptr inbounds nuw ptr, ptr %3, i64 %7
  %.not11 = icmp eq i32 %6, 0
  br i1 %.not11, label %._crit_edge.thread17, label %.lr.ph

.lr.ph:                                           ; preds = %_ZN6vectorIPN17substitution_tree4nodeELb0EjE3endEv.exit, %11
  %.012 = phi ptr [ %12, %11 ], [ %3, %_ZN6vectorIPN17substitution_tree4nodeELb0EjE3endEv.exit ]
  %9 = load ptr, ptr %.012, align 8, !tbaa !98
  %.not7 = icmp eq ptr %9, null
  br i1 %.not7, label %11, label %10

10:                                               ; preds = %.lr.ph
  tail call void @_ZN17substitution_tree11delete_nodeEPNS_4nodeE(ptr noundef nonnull align 8 dereferenceable(136) %0, ptr noundef nonnull %9)
  br label %11

11:                                               ; preds = %.lr.ph, %10
  %12 = getelementptr inbounds nuw i8, ptr %.012, i64 8
  %.not = icmp eq ptr %12, %8
  br i1 %.not, label %._crit_edge, label %.lr.ph, !llvm.loop !121

._crit_edge:                                      ; preds = %11
  %.pre = load ptr, ptr %2, align 8, !tbaa !96
  %.not.i = icmp eq ptr %.pre, null
  br i1 %.not.i, label %_ZN6vectorIPN17substitution_tree4nodeELb0EjE5resetEv.exit, label %._crit_edge.thread17

._crit_edge.thread17:                             ; preds = %_ZN6vectorIPN17substitution_tree4nodeELb0EjE3endEv.exit, %._crit_edge
  %13 = phi ptr [ %.pre, %._crit_edge ], [ %3, %_ZN6vectorIPN17substitution_tree4nodeELb0EjE3endEv.exit ]
  %14 = getelementptr inbounds i8, ptr %13, i64 -4
  store i32 0, ptr %14, align 4, !tbaa !33
  br label %_ZN6vectorIPN17substitution_tree4nodeELb0EjE5resetEv.exit

_ZN6vectorIPN17substitution_tree4nodeELb0EjE5resetEv.exit: ; preds = %1, %._crit_edge, %._crit_edge.thread17
  %15 = getelementptr inbounds nuw i8, ptr %0, i64 40
  %16 = load ptr, ptr %15, align 8, !tbaa !86
  %17 = icmp eq ptr %16, null
  br i1 %17, label %_ZN6vectorIP10ref_vectorI3var11ast_managerELb0EjE5resetEv.exit, label %_ZN6vectorIP10ref_vectorI3var11ast_managerELb0EjE3endEv.exit

_ZN6vectorIP10ref_vectorI3var11ast_managerELb0EjE3endEv.exit: ; preds = %_ZN6vectorIPN17substitution_tree4nodeELb0EjE5resetEv.exit
  %18 = getelementptr inbounds i8, ptr %16, i64 -4
  %19 = load i32, ptr %18, align 4, !tbaa !33
  %20 = zext i32 %19 to i64
  %21 = getelementptr inbounds nuw ptr, ptr %16, i64 %20
  %.not4.i = icmp eq i32 %19, 0
  br i1 %.not4.i, label %_ZSt8for_eachIPP10ref_vectorI3var11ast_managerE11delete_procIS3_EET0_T_S9_S8_.exit.thread22, label %.lr.ph.i

.lr.ph.i:                                         ; preds = %_ZN6vectorIP10ref_vectorI3var11ast_managerELb0EjE3endEv.exit, %_ZN11delete_procI10ref_vectorI3var11ast_managerEEclEPS3_.exit.i
  %.05.i = phi ptr [ %24, %_ZN11delete_procI10ref_vectorI3var11ast_managerEEclEPS3_.exit.i ], [ %16, %_ZN6vectorIP10ref_vectorI3var11ast_managerELb0EjE3endEv.exit ]
  %22 = load ptr, ptr %.05.i, align 8, !tbaa !88
  %.not.i.i = icmp eq ptr %22, null
  br i1 %.not.i.i, label %_ZN11delete_procI10ref_vectorI3var11ast_managerEEclEPS3_.exit.i, label %23

23:                                               ; preds = %.lr.ph.i
  tail call void @_Z7deallocI10ref_vectorI3var11ast_managerEEvPT_(ptr noundef nonnull %22)
  br label %_ZN11delete_procI10ref_vectorI3var11ast_managerEEclEPS3_.exit.i

_ZN11delete_procI10ref_vectorI3var11ast_managerEEclEPS3_.exit.i: ; preds = %23, %.lr.ph.i
  %24 = getelementptr inbounds nuw i8, ptr %.05.i, i64 8
  %.not.i9 = icmp eq ptr %24, %21
  br i1 %.not.i9, label %_ZSt8for_eachIPP10ref_vectorI3var11ast_managerE11delete_procIS3_EET0_T_S9_S8_.exit, label %.lr.ph.i, !llvm.loop !122

_ZSt8for_eachIPP10ref_vectorI3var11ast_managerE11delete_procIS3_EET0_T_S9_S8_.exit: ; preds = %_ZN11delete_procI10ref_vectorI3var11ast_managerEEclEPS3_.exit.i
  %.pre13 = load ptr, ptr %15, align 8, !tbaa !86
  %.not.i10 = icmp eq ptr %.pre13, null
  br i1 %.not.i10, label %_ZN6vectorIP10ref_vectorI3var11ast_managerELb0EjE5resetEv.exit, label %_ZSt8for_eachIPP10ref_vectorI3var11ast_managerE11delete_procIS3_EET0_T_S9_S8_.exit.thread22

_ZSt8for_eachIPP10ref_vectorI3var11ast_managerE11delete_procIS3_EET0_T_S9_S8_.exit.thread22: ; preds = %_ZN6vectorIP10ref_vectorI3var11ast_managerELb0EjE3endEv.exit, %_ZSt8for_eachIPP10ref_vectorI3var11ast_managerE11delete_procIS3_EET0_T_S9_S8_.exit
  %25 = phi ptr [ %.pre13, %_ZSt8for_eachIPP10ref_vectorI3var11ast_managerE11delete_procIS3_EET0_T_S9_S8_.exit ], [ %16, %_ZN6vectorIP10ref_vectorI3var11ast_managerELb0EjE3endEv.exit ]
  %26 = getelementptr inbounds i8, ptr %25, i64 -4
  store i32 0, ptr %26, align 4, !tbaa !33
  br label %_ZN6vectorIP10ref_vectorI3var11ast_managerELb0EjE5resetEv.exit

_ZN6vectorIP10ref_vectorI3var11ast_managerELb0EjE5resetEv.exit: ; preds = %_ZN6vectorIPN17substitution_tree4nodeELb0EjE5resetEv.exit, %_ZSt8for_eachIPP10ref_vectorI3var11ast_managerE11delete_procIS3_EET0_T_S9_S8_.exit, %_ZSt8for_eachIPP10ref_vectorI3var11ast_managerE11delete_procIS3_EET0_T_S9_S8_.exit.thread22
  %27 = getelementptr inbounds nuw i8, ptr %0, i64 32
  store i32 0, ptr %27, align 8, !tbaa !105
  ret void
}